; ModuleID = '45/79.c'
source_filename = "45/79.c"
target datalayout = "e-m:e-p270:32:32-p271:32:32-p272:64:64-i64:64-f80:128-n8:16:32:64-S128"
target triple = "x86_64-pc-linux-gnu"

@.str = private unnamed_addr constant [6 x i8] c"%s %s\00", align 1
@.str.1 = private unnamed_addr constant [4 x i8] c"%d\0A\00", align 1

; Function Attrs: noinline nounwind uwtable
define dso_local i32 @main(i32 %0, i8** %1) #0 {
  %3 = alloca i32, align 4
  %4 = alloca i32, align 4
  %5 = alloca i8**, align 8
  %6 = alloca [50 x i8], align 16
  %7 = alloca [50 x i8], align 16
  %8 = alloca i32, align 4
  %9 = alloca i32, align 4
  store i32 0, i32* %3, align 4
  store i32 %0, i32* %4, align 4
  store i8** %1, i8*** %5, align 8
  %10 = getelementptr inbounds [50 x i8], [50 x i8]* %6, i64 0, i64 0
  %11 = getelementptr inbounds [50 x i8], [50 x i8]* %7, i64 0, i64 0
  %12 = call i32 (i8*, ...) @__isoc99_scanf(i8* getelementptr inbounds ([6 x i8], [6 x i8]* @.str, i64 0, i64 0), i8* %10, i8* %11)
  store i32 0, i32* %8, align 4
  br label %13

13:                                               ; preds = %50, %2
  %14 = load i32, i32* %8, align 4
  %15 = sext i32 %14 to i64
  %16 = getelementptr inbounds [50 x i8], [50 x i8]* %7, i64 0, i64 %15
  %17 = load i8, i8* %16, align 1
  %18 = sext i8 %17 to i32
  %19 = icmp ne i32 %18, 0
  br i1 %19, label %20, label %53

20:                                               ; preds = %13
  store i32 0, i32* %9, align 4
  br label %21

21:                                               ; preds = %46, %20
  %22 = load i32, i32* %9, align 4
  %23 = sext i32 %22 to i64
  %24 = getelementptr inbounds [50 x i8], [50 x i8]* %6, i64 0, i64 %23
  %25 = load i8, i8* %24, align 1
  %26 = sext i8 %25 to i32
  %27 = icmp ne i32 %26, 0
  br i1 %27, label %28, label %49

28:                                               ; preds = %21
  %29 = load i32, i32* %9, align 4
  %30 = sext i32 %29 to i64
  %31 = getelementptr inbounds [50 x i8], [50 x i8]* %6, i64 0, i64 %30
  %32 = load i8, i8* %31, align 1
  %33 = sext i8 %32 to i32
  %34 = load i32, i32* %8, align 4
  %35 = load i32, i32* %9, align 4
  %36 = add nsw i32 %34, %35
  %37 = sext i32 %36 to i64
  %38 = getelementptr inbounds [50 x i8], [50 x i8]* %7, i64 0, i64 %37
  %39 = load i8, i8* %38, align 1
  %40 = sext i8 %39 to i32
  %41 = icmp ne i32 %33, %40
  br i1 %41, label %42, label %43

42:                                               ; preds = %28
  br label %49

43:                                               ; preds = %28
  %44 = load i32, i32* %8, align 4
  %45 = call i32 (i8*, ...) @printf(i8* getelementptr inbounds ([4 x i8], [4 x i8]* @.str.1, i64 0, i64 0), i32 %44)
  br label %49

46:                                               ; No predecessors!
  %47 = load i32, i32* %9, align 4
  %48 = add nsw i32 %47, 1
  store i32 %48, i32* %9, align 4
  br label %21

49:                                               ; preds = %43, %42, %21
  br label %50

50:                                               ; preds = %49
  %51 = load i32, i32* %8, align 4
  %52 = add nsw i32 %51, 1
  store i32 %52, i32* %8, align 4
  br label %13

53:                                               ; preds = %13
  ret i32 0
}

declare dso_local i32 @__isoc99_scanf(i8*, ...) #1

declare dso_local i32 @printf(i8*, ...) #1


!llvm.module.flags = !{!0}
!llvm.ident = !{!1}

!0 = !{i32 1, !"wchar_size", i32 4}
!1 = !{!"clang version 10.0.0-4ubuntu1 "}
